target datalayout = "e-m:e-p270:32:32-p271:32:32-p272:64:64-i64:64-i128:128-f80:128-n8:16:32:64-S128"
target triple = "x86_64-pc-linux-gnu"

%struct._scsi_task_data = type { i32, ptr, ptr }
%struct._itl_nexus_t = type { i8, ptr }

@cdb_control_fields = hidden constant [6 x ptr] [ptr @hf_scsi_control_vendor_specific, ptr @hf_scsi_control_reserved, ptr @hf_scsi_control_naca, ptr @hf_scsi_control_obs1, ptr @hf_scsi_control_obs2, ptr null], align 16
@hf_scsi_control = hidden global i32 0, align 4
@ett_scsi_control = hidden global i32 0, align 4
@hf_scsi_paramlen16 = internal global i32 0, align 4
@hf_scsi_modesel_flags = internal global i32 0, align 4
@.str.44 = private unnamed_addr constant [17 x i8] c"PF = %u, SP = %u\00", align 1
@hf_scsi_modesel_dev_sbc_medium_type = internal global i32 0, align 4
@hf_scsi_modesel_medium_type = internal global i32 0, align 4
@hf_scsi_modesel_device_specific_parameter = internal global i32 0, align 4
@hf_scsi_modesel_mode_data_length16 = internal global i32 0, align 4
@hf_scsi_modesel_longlba = internal global i32 0, align 4
@hf_scsi_modesel_block_descriptor_length16 = internal global i32 0, align 4

; Function Attrs: nounwind uwtable
define hidden void @dissect_spc_modeselect10(ptr noundef %0, ptr noundef %1, ptr noundef %2, i32 noundef %3, i32 noundef %4, i32 noundef %5, i32 noundef %6, ptr noundef %7) #0 {
  %9 = alloca ptr, align 8
  %10 = alloca ptr, align 8
  %11 = alloca ptr, align 8
  %12 = alloca i32, align 4
  %13 = alloca i32, align 4
  %14 = alloca i32, align 4
  %15 = alloca i32, align 4
  %16 = alloca ptr, align 8
  %17 = alloca i8, align 1
  %18 = alloca i32, align 4
  %19 = alloca i32, align 4
  %20 = alloca i32, align 4
  %21 = alloca ptr, align 8
  store ptr %0, ptr %9, align 8
  store ptr %1, ptr %10, align 8
  store ptr %2, ptr %11, align 8
  store i32 %3, ptr %12, align 4
  store i32 %4, ptr %13, align 4
  store i32 %5, ptr %14, align 4
  store i32 %6, ptr %15, align 4
  store ptr %7, ptr %16, align 8
  %22 = load ptr, ptr %11, align 8
  %23 = icmp ne ptr %22, null
  br i1 %23, label %25, label %24

24:                                               ; preds = %8
  br label %221

25:                                               ; preds = %8
  %26 = load i32, ptr %13, align 4
  %27 = icmp ne i32 %26, 0
  br i1 %27, label %28, label %61

28:                                               ; preds = %25
  %29 = load i32, ptr %14, align 4
  %30 = icmp ne i32 %29, 0
  br i1 %30, label %31, label %61

31:                                               ; preds = %28
  %32 = load ptr, ptr %9, align 8
  %33 = load i32, ptr %12, align 4
  %34 = call zeroext i8 @tvb_get_guint8(ptr noundef %32, i32 noundef %33)
  store i8 %34, ptr %17, align 1
  %35 = load ptr, ptr %11, align 8
  %36 = load i32, ptr @hf_scsi_modesel_flags, align 4
  %37 = load ptr, ptr %9, align 8
  %38 = load i32, ptr %12, align 4
  %39 = load i8, ptr %17, align 1
  %40 = zext i8 %39 to i32
  %41 = load i8, ptr %17, align 1
  %42 = zext i8 %41 to i32
  %43 = and i32 %42, 16
  %44 = load i8, ptr %17, align 1
  %45 = zext i8 %44 to i32
  %46 = and i32 %45, 1
  %47 = call ptr (ptr, i32, ptr, i32, i32, i32, ptr, ...) @proto_tree_add_uint_format(ptr noundef %35, i32 noundef %36, ptr noundef %37, i32 noundef %38, i32 noundef 1, i32 noundef %40, ptr noundef @.str.44, i32 noundef %43, i32 noundef %46)
  %48 = load ptr, ptr %11, align 8
  %49 = load i32, ptr @hf_scsi_paramlen16, align 4
  %50 = load ptr, ptr %9, align 8
  %51 = load i32, ptr %12, align 4
  %52 = add i32 %51, 6
  %53 = call ptr @proto_tree_add_item(ptr noundef %48, i32 noundef %49, ptr noundef %50, i32 noundef %52, i32 noundef 2, i32 noundef 0)
  %54 = load ptr, ptr %11, align 8
  %55 = load ptr, ptr %9, align 8
  %56 = load i32, ptr %12, align 4
  %57 = add i32 %56, 8
  %58 = load i32, ptr @hf_scsi_control, align 4
  %59 = load i32, ptr @ett_scsi_control, align 4
  %60 = call ptr @proto_tree_add_bitmask(ptr noundef %54, ptr noundef %55, i32 noundef %57, i32 noundef %58, i32 noundef %59, ptr noundef @cdb_control_fields, i32 noundef 0)
  br label %221

61:                                               ; preds = %28, %25
  %62 = load i32, ptr %15, align 4
  %63 = icmp ult i32 %62, 1
  br i1 %63, label %64, label %65

64:                                               ; preds = %61
  br label %221

65:                                               ; preds = %61
  %66 = load ptr, ptr %11, align 8
  %67 = load i32, ptr @hf_scsi_modesel_mode_data_length16, align 4
  %68 = load ptr, ptr %9, align 8
  %69 = load i32, ptr %12, align 4
  %70 = call ptr @proto_tree_add_item(ptr noundef %66, i32 noundef %67, ptr noundef %68, i32 noundef %69, i32 noundef 2, i32 noundef 0)
  %71 = load i32, ptr %12, align 4
  %72 = add i32 %71, 2
  store i32 %72, ptr %12, align 4
  %73 = load i32, ptr %15, align 4
  %74 = sub i32 %73, 2
  store i32 %74, ptr %15, align 4
  %75 = load i32, ptr %15, align 4
  %76 = icmp ult i32 %75, 1
  br i1 %76, label %77, label %78

77:                                               ; preds = %65
  br label %221

78:                                               ; preds = %65
  %79 = load ptr, ptr %16, align 8
  %80 = getelementptr inbounds %struct._scsi_task_data, ptr %79, i32 0, i32 2
  %81 = load ptr, ptr %80, align 8
  %82 = icmp ne ptr %81, null
  br i1 %82, label %84, label %83

83:                                               ; preds = %78
  br label %221

84:                                               ; preds = %78
  %85 = load ptr, ptr %16, align 8
  %86 = getelementptr inbounds %struct._scsi_task_data, ptr %85, i32 0, i32 2
  %87 = load ptr, ptr %86, align 8
  %88 = getelementptr inbounds %struct._itl_nexus_t, ptr %87, i32 0, i32 0
  %89 = load i8, ptr %88, align 8
  %90 = zext i8 %89 to i32
  %91 = and i32 %90, 127
  switch i32 %91, label %98 [
    i32 0, label %92
  ]

92:                                               ; preds = %84
  %93 = load ptr, ptr %11, align 8
  %94 = load i32, ptr @hf_scsi_modesel_dev_sbc_medium_type, align 4
  %95 = load ptr, ptr %9, align 8
  %96 = load i32, ptr %12, align 4
  %97 = call ptr @proto_tree_add_item(ptr noundef %93, i32 noundef %94, ptr noundef %95, i32 noundef %96, i32 noundef 1, i32 noundef 0)
  br label %104

98:                                               ; preds = %84
  %99 = load ptr, ptr %11, align 8
  %100 = load i32, ptr @hf_scsi_modesel_medium_type, align 4
  %101 = load ptr, ptr %9, align 8
  %102 = load i32, ptr %12, align 4
  %103 = call ptr @proto_tree_add_item(ptr noundef %99, i32 noundef %100, ptr noundef %101, i32 noundef %102, i32 noundef 1, i32 noundef 0)
  br label %104

104:                                              ; preds = %98, %92
  %105 = load i32, ptr %12, align 4
  %106 = add i32 %105, 1
  store i32 %106, ptr %12, align 4
  %107 = load i32, ptr %15, align 4
  %108 = sub i32 %107, 1
  store i32 %108, ptr %15, align 4
  %109 = load i32, ptr %15, align 4
  %110 = icmp ult i32 %109, 1
  br i1 %110, label %111, label %112

111:                                              ; preds = %104
  br label %221

112:                                              ; preds = %104
  %113 = load ptr, ptr %11, align 8
  %114 = load i32, ptr @hf_scsi_modesel_device_specific_parameter, align 4
  %115 = load ptr, ptr %9, align 8
  %116 = load i32, ptr %12, align 4
  %117 = call ptr @proto_tree_add_item(ptr noundef %113, i32 noundef %114, ptr noundef %115, i32 noundef %116, i32 noundef 1, i32 noundef 0)
  %118 = load i32, ptr %12, align 4
  %119 = add i32 %118, 1
  store i32 %119, ptr %12, align 4
  %120 = load i32, ptr %15, align 4
  %121 = sub i32 %120, 1
  store i32 %121, ptr %15, align 4
  %122 = load i32, ptr %15, align 4
  %123 = icmp ult i32 %122, 1
  br i1 %123, label %124, label %125

124:                                              ; preds = %112
  br label %221

125:                                              ; preds = %112
  %126 = load ptr, ptr %9, align 8
  %127 = load i32, ptr %12, align 4
  %128 = call zeroext i8 @tvb_get_guint8(ptr noundef %126, i32 noundef %127)
  %129 = zext i8 %128 to i32
  %130 = and i32 %129, 1
  store i32 %130, ptr %18, align 4
  %131 = load ptr, ptr %11, align 8
  %132 = load i32, ptr @hf_scsi_modesel_longlba, align 4
  %133 = load ptr, ptr %9, align 8
  %134 = load i32, ptr %12, align 4
  %135 = call ptr @proto_tree_add_item(ptr noundef %131, i32 noundef %132, ptr noundef %133, i32 noundef %134, i32 noundef 1, i32 noundef 0)
  %136 = load i32, ptr %12, align 4
  %137 = add i32 %136, 2
  store i32 %137, ptr %12, align 4
  %138 = load i32, ptr %15, align 4
  %139 = sub i32 %138, 2
  store i32 %139, ptr %15, align 4
  %140 = load i32, ptr %15, align 4
  %141 = icmp ult i32 %140, 1
  br i1 %141, label %142, label %143

142:                                              ; preds = %125
  br label %221

143:                                              ; preds = %125
  %144 = load ptr, ptr %9, align 8
  %145 = load i32, ptr %12, align 4
  %146 = call zeroext i16 @tvb_get_ntohs(ptr noundef %144, i32 noundef %145)
  %147 = zext i16 %146 to i32
  store i32 %147, ptr %19, align 4
  %148 = load ptr, ptr %11, align 8
  %149 = load i32, ptr @hf_scsi_modesel_block_descriptor_length16, align 4
  %150 = load ptr, ptr %9, align 8
  %151 = load i32, ptr %12, align 4
  %152 = call ptr @proto_tree_add_item(ptr noundef %148, i32 noundef %149, ptr noundef %150, i32 noundef %151, i32 noundef 2, i32 noundef 0)
  %153 = load i32, ptr %12, align 4
  %154 = add i32 %153, 2
  store i32 %154, ptr %12, align 4
  %155 = load i32, ptr %15, align 4
  %156 = sub i32 %155, 2
  store i32 %156, ptr %15, align 4
  %157 = load ptr, ptr %9, align 8
  %158 = load i32, ptr %12, align 4
  %159 = call i32 @tvb_reported_length_remaining(ptr noundef %157, i32 noundef %158)
  %160 = icmp sgt i32 %159, 0
  br i1 %160, label %161, label %184

161:                                              ; preds = %143
  %162 = load ptr, ptr %9, align 8
  %163 = load i32, ptr %12, align 4
  %164 = load ptr, ptr %9, align 8
  %165 = load i32, ptr %12, align 4
  %166 = call i32 @tvb_reported_length_remaining(ptr noundef %164, i32 noundef %165)
  %167 = load i32, ptr %19, align 4
  %168 = icmp slt i32 %166, %167
  br i1 %168, label %169, label %173

169:                                              ; preds = %161
  %170 = load ptr, ptr %9, align 8
  %171 = load i32, ptr %12, align 4
  %172 = call i32 @tvb_reported_length_remaining(ptr noundef %170, i32 noundef %171)
  br label %175

173:                                              ; preds = %161
  %174 = load i32, ptr %19, align 4
  br label %175

175:                                              ; preds = %173, %169
  %176 = phi i32 [ %172, %169 ], [ %174, %173 ]
  %177 = load i32, ptr %19, align 4
  %178 = call ptr @tvb_new_subset_length_caplen(ptr noundef %162, i32 noundef %163, i32 noundef %176, i32 noundef %177)
  store ptr %178, ptr %21, align 8
  %179 = load ptr, ptr %21, align 8
  %180 = load ptr, ptr %10, align 8
  %181 = load ptr, ptr %11, align 8
  %182 = load ptr, ptr %16, align 8
  %183 = load i32, ptr %18, align 4
  call void @dissect_scsi_blockdescs(ptr noundef %179, ptr noundef %180, ptr noundef %181, ptr noundef %182, i32 noundef %183)
  br label %184

184:                                              ; preds = %175, %143
  %185 = load i32, ptr %19, align 4
  %186 = load i32, ptr %12, align 4
  %187 = add i32 %186, %185
  store i32 %187, ptr %12, align 4
  %188 = load i32, ptr %19, align 4
  %189 = load i32, ptr %15, align 4
  %190 = sub i32 %189, %188
  store i32 %190, ptr %15, align 4
  br label %191

191:                                              ; preds = %201, %184
  %192 = load i32, ptr %15, align 4
  %193 = icmp ugt i32 %192, 0
  br i1 %193, label %194, label %199

194:                                              ; preds = %191
  %195 = load ptr, ptr %9, align 8
  %196 = load i32, ptr %12, align 4
  %197 = call i32 @tvb_bytes_exist(ptr noundef %195, i32 noundef %196, i32 noundef 2)
  %198 = icmp ne i32 %197, 0
  br label %199

199:                                              ; preds = %194, %191
  %200 = phi i1 [ false, %191 ], [ %198, %194 ]
  br i1 %200, label %201, label %220

201:                                              ; preds = %199
  %202 = load ptr, ptr %9, align 8
  %203 = load ptr, ptr %10, align 8
  %204 = load ptr, ptr %11, align 8
  %205 = load i32, ptr %12, align 4
  %206 = load ptr, ptr %16, align 8
  %207 = getelementptr inbounds %struct._scsi_task_data, ptr %206, i32 0, i32 2
  %208 = load ptr, ptr %207, align 8
  %209 = getelementptr inbounds %struct._itl_nexus_t, ptr %208, i32 0, i32 0
  %210 = load i8, ptr %209, align 8
  %211 = zext i8 %210 to i32
  %212 = and i32 %211, 127
  %213 = call i32 @dissect_scsi_modepage(ptr noundef %202, ptr noundef %203, ptr noundef %204, i32 noundef %205, i32 noundef %212)
  store i32 %213, ptr %20, align 4
  %214 = load i32, ptr %20, align 4
  %215 = load i32, ptr %12, align 4
  %216 = add i32 %215, %214
  store i32 %216, ptr %12, align 4
  %217 = load i32, ptr %20, align 4
  %218 = load i32, ptr %15, align 4
  %219 = sub i32 %218, %217
  store i32 %219, ptr %15, align 4
  br label %191, !llvm.loop !16

220:                                              ; preds = %199
  br label %221

221:                                              ; preds = %220, %142, %124, %111, %83, %77, %64, %31, %24
  ret void
}