; Function Attrs: nounwind uwtable
define hidden void @dissect_spc_modeselect10(ptr noundef %0, ptr noundef %1, ptr noundef %2, i32 noundef %3, i32 noundef %4, i32 noundef %5, i32 noundef %6, ptr noundef %7) #0 {
  %.not = icmp eq ptr %2, null
  br i1 %.not, label %.critedge, label %9

9:                                                ; preds = %8
  %10 = icmp ne i32 %4, 0
  %11 = icmp ne i32 %5, 0
  %or.cond = and i1 %10, %11
  br i1 %or.cond, label %12, label %26

12:                                               ; preds = %9
  %13 = tail call zeroext i8 @tvb_get_guint8(ptr noundef %0, i32 noundef %3) #10
  %14 = load i32, ptr @hf_scsi_modesel_flags, align 4
  %15 = zext i8 %13 to i32
  %16 = and i32 %15, 16
  %17 = and i32 %15, 1
  %18 = tail call ptr (ptr, i32, ptr, i32, i32, i32, ptr, ...) @proto_tree_add_uint_format(ptr noundef nonnull %2, i32 noundef %14, ptr noundef %0, i32 noundef %3, i32 noundef 1, i32 noundef %15, ptr noundef nonnull @.str.44, i32 noundef %16, i32 noundef %17) #10
  %19 = load i32, ptr @hf_scsi_paramlen16, align 4
  %20 = add i32 %3, 6
  %21 = tail call ptr @proto_tree_add_item(ptr noundef nonnull %2, i32 noundef %19, ptr noundef %0, i32 noundef %20, i32 noundef 2, i32 noundef 0) #10
  %22 = add i32 %3, 8
  %23 = load i32, ptr @hf_scsi_control, align 4
  %24 = load i32, ptr @ett_scsi_control, align 4
  %25 = tail call ptr @proto_tree_add_bitmask(ptr noundef nonnull %2, ptr noundef %0, i32 noundef %22, i32 noundef %23, i32 noundef %24, ptr noundef nonnull @cdb_control_fields, i32 noundef 0) #10
  br label %.critedge

26:                                               ; preds = %9
  %27 = icmp eq i32 %6, 0
  br i1 %27, label %.critedge, label %28

28:                                               ; preds = %26
  %29 = load i32, ptr @hf_scsi_modesel_mode_data_length16, align 4
  %30 = tail call ptr @proto_tree_add_item(ptr noundef nonnull %2, i32 noundef %29, ptr noundef %0, i32 noundef %3, i32 noundef 2, i32 noundef 0) #10
  %31 = add i32 %3, 2
  %32 = icmp eq i32 %6, 2
  br i1 %32, label %.critedge, label %33

33:                                               ; preds = %28
  %34 = getelementptr inbounds nuw i8, ptr %7, i64 16
  %35 = load ptr, ptr %34, align 8
  %.not97 = icmp eq ptr %35, null
  br i1 %.not97, label %.critedge, label %36

36:                                               ; preds = %33
  %37 = load i8, ptr %35, align 8
  %38 = and i8 %37, 127
  %cond = icmp eq i8 %38, 0
  %hf_scsi_modesel_dev_sbc_medium_type.val = load i32, ptr @hf_scsi_modesel_dev_sbc_medium_type, align 4
  %hf_scsi_modesel_medium_type.val = load i32, ptr @hf_scsi_modesel_medium_type, align 4
  %39 = select i1 %cond, i32 %hf_scsi_modesel_dev_sbc_medium_type.val, i32 %hf_scsi_modesel_medium_type.val
  %40 = tail call ptr @proto_tree_add_item(ptr noundef nonnull %2, i32 noundef %39, ptr noundef %0, i32 noundef %31, i32 noundef 1, i32 noundef 0) #10
  %41 = icmp eq i32 %6, 3
  br i1 %41, label %.critedge, label %42

42:                                               ; preds = %36
  %43 = add i32 %3, 3
  %44 = load i32, ptr @hf_scsi_modesel_device_specific_parameter, align 4
  %45 = tail call ptr @proto_tree_add_item(ptr noundef nonnull %2, i32 noundef %44, ptr noundef %0, i32 noundef %43, i32 noundef 1, i32 noundef 0) #10
  %46 = icmp eq i32 %6, 4
  br i1 %46, label %.critedge, label %47

47:                                               ; preds = %42
  %48 = add i32 %3, 4
  %49 = tail call zeroext i8 @tvb_get_guint8(ptr noundef %0, i32 noundef %48) #10
  %50 = and i8 %49, 1
  %51 = zext nneg i8 %50 to i32
  %52 = load i32, ptr @hf_scsi_modesel_longlba, align 4
  %53 = tail call ptr @proto_tree_add_item(ptr noundef nonnull %2, i32 noundef %52, ptr noundef %0, i32 noundef %48, i32 noundef 1, i32 noundef 0) #10
  %54 = icmp eq i32 %6, 6
  br i1 %54, label %.critedge, label %55

55:                                               ; preds = %47
  %56 = add i32 %3, 6
  %57 = tail call zeroext i16 @tvb_get_ntohs(ptr noundef %0, i32 noundef %56) #10
  %58 = zext i16 %57 to i32
  %59 = load i32, ptr @hf_scsi_modesel_block_descriptor_length16, align 4
  %60 = tail call ptr @proto_tree_add_item(ptr noundef nonnull %2, i32 noundef %59, ptr noundef %0, i32 noundef %56, i32 noundef 2, i32 noundef 0) #10
  %61 = add i32 %3, 8
  %62 = add i32 %6, -8
  %63 = tail call i32 @tvb_reported_length_remaining(ptr noundef %0, i32 noundef %61) #10
  %64 = icmp sgt i32 %63, 0
  br i1 %64, label %65, label %73

65:                                               ; preds = %55
  %66 = tail call i32 @tvb_reported_length_remaining(ptr noundef %0, i32 noundef %61) #10
  %67 = icmp slt i32 %66, %58
  br i1 %67, label %68, label %70

68:                                               ; preds = %65
  %69 = tail call i32 @tvb_reported_length_remaining(ptr noundef %0, i32 noundef %61) #10
  br label %70

70:                                               ; preds = %65, %68
  %71 = phi i32 [ %69, %68 ], [ %58, %65 ]
  %72 = tail call ptr @tvb_new_subset_length_caplen(ptr noundef %0, i32 noundef %61, i32 noundef %71, i32 noundef %58) #10
  tail call fastcc void @dissect_scsi_blockdescs(ptr noundef %72, ptr noundef %2, ptr noundef nonnull %7, i32 noundef %51)
  br label %73

73:                                               ; preds = %70, %55
  %74 = sub i32 %62, %58
  %.not98100 = icmp eq i32 %74, 0
  br i1 %.not98100, label %.critedge, label %.lr.ph.preheader

.lr.ph.preheader:                                 ; preds = %73
  %75 = add i32 %61, %58
  br label %.lr.ph

.lr.ph:                                           ; preds = %.lr.ph.preheader, %77
  %.0102 = phi i32 [ %83, %77 ], [ %75, %.lr.ph.preheader ]
  %.088101 = phi i32 [ %84, %77 ], [ %74, %.lr.ph.preheader ]
  %76 = tail call i32 @tvb_bytes_exist(ptr noundef %0, i32 noundef %.0102, i32 noundef 2) #10
  %.not99 = icmp eq i32 %76, 0
  br i1 %.not99, label %.critedge, label %77

77:                                               ; preds = %.lr.ph
  %78 = load ptr, ptr %34, align 8
  %79 = load i8, ptr %78, align 8
  %80 = and i8 %79, 127
  %81 = zext nneg i8 %80 to i32
  %82 = tail call fastcc i32 @dissect_scsi_modepage(ptr noundef %0, ptr noundef %1, ptr noundef %2, i32 noundef %.0102, i32 noundef %81)
  %83 = add i32 %82, %.0102
  %84 = sub i32 %.088101, %82
  %.not98 = icmp eq i32 %84, 0
  br i1 %.not98, label %.critedge, label %.lr.ph, !llvm.loop !15

.critedge:                                        ; preds = %77, %.lr.ph, %73, %47, %42, %36, %33, %28, %26, %8, %12
  ret void
}